target datalayout = "e-m:e-p270:32:32-p271:32:32-p272:64:64-i64:64-i128:128-f80:128-n8:16:32:64-S128"
target triple = "x86_64-pc-linux-gnu"

%struct.FSE_DTableHeader = type { i16, i16 }
%struct.BIT_DStream_t = type { i64, i32, ptr, ptr, ptr }
%struct.FSE_DState_t = type { i64, ptr }

@BIT_reloadDStream.zeroFilled = internal constant i64 0, align 8

; Function Attrs: inlinehint nounwind uwtable
define internal i64 @MEM_swap64(i64 noundef %0) #4 {
  %2 = alloca i64, align 8
  store i64 %0, ptr %2, align 8, !tbaa !13
  %3 = load i64, ptr %2, align 8, !tbaa !13
  %4 = call i64 @llvm.bswap.i64(i64 %3)
  ret i64 %4
}

; Function Attrs: inlinehint nounwind uwtable
define internal i64 @MEM_read64(ptr noundef %0) #4 {
  %2 = alloca ptr, align 8
  store ptr %0, ptr %2, align 8, !tbaa !12
  %3 = load ptr, ptr %2, align 8, !tbaa !12
  %4 = load i64, ptr %3, align 1, !tbaa !13
  ret i64 %4
}

; Function Attrs: inlinehint nounwind uwtable
define internal i32 @MEM_swap32(i32 noundef %0) #4 {
  %2 = alloca i32, align 4
  store i32 %0, ptr %2, align 4, !tbaa !10
  %3 = load i32, ptr %2, align 4, !tbaa !10
  %4 = call i32 @llvm.bswap.i32(i32 %3)
  ret i32 %4
}

; Function Attrs: inlinehint nounwind uwtable
define internal i32 @MEM_read32(ptr noundef %0) #4 {
  %2 = alloca ptr, align 8
  store ptr %0, ptr %2, align 8, !tbaa !12
  %3 = load ptr, ptr %2, align 8, !tbaa !12
  %4 = load i32, ptr %3, align 1, !tbaa !10
  ret i32 %4
}

; Function Attrs: inlinehint nounwind uwtable
define internal i32 @MEM_isLittleEndian() #4 {
  ret i32 1
}

; Function Attrs: inlinehint nounwind uwtable
define internal i64 @MEM_readLE64(ptr noundef %0) #4 {
  %2 = alloca i64, align 8
  %3 = alloca ptr, align 8
  store ptr %0, ptr %3, align 8, !tbaa !12
  %4 = call i32 @MEM_isLittleEndian()
  %5 = icmp ne i32 %4, 0
  br i1 %5, label %6, label %9

6:                                                ; preds = %1
  %7 = load ptr, ptr %3, align 8, !tbaa !12
  %8 = call i64 @MEM_read64(ptr noundef %7)
  store i64 %8, ptr %2, align 8
  br label %13

9:                                                ; preds = %1
  %10 = load ptr, ptr %3, align 8, !tbaa !12
  %11 = call i64 @MEM_read64(ptr noundef %10)
  %12 = call i64 @MEM_swap64(i64 noundef %11)
  store i64 %12, ptr %2, align 8
  br label %13

13:                                               ; preds = %9, %6
  %14 = load i64, ptr %2, align 8
  ret i64 %14
}

; Function Attrs: inlinehint nounwind uwtable
define internal i32 @MEM_readLE32(ptr noundef %0) #4 {
  %2 = alloca i32, align 4
  %3 = alloca ptr, align 8
  store ptr %0, ptr %3, align 8, !tbaa !12
  %4 = call i32 @MEM_isLittleEndian()
  %5 = icmp ne i32 %4, 0
  br i1 %5, label %6, label %9

6:                                                ; preds = %1
  %7 = load ptr, ptr %3, align 8, !tbaa !12
  %8 = call i32 @MEM_read32(ptr noundef %7)
  store i32 %8, ptr %2, align 4
  br label %13

9:                                                ; preds = %1
  %10 = load ptr, ptr %3, align 8, !tbaa !12
  %11 = call i32 @MEM_read32(ptr noundef %10)
  %12 = call i32 @MEM_swap32(i32 noundef %11)
  store i32 %12, ptr %2, align 4
  br label %13

13:                                               ; preds = %9, %6
  %14 = load i32, ptr %2, align 4
  ret i32 %14
}

; Function Attrs: inlinehint nounwind uwtable
define internal i32 @MEM_32bits() #4 {
  ret i32 0
}

; Function Attrs: alwaysinline nounwind uwtable
define internal i64 @BIT_getMiddleBits(i64 noundef %0, i32 noundef %1, i32 noundef %2) #6 {
  %4 = alloca i64, align 8
  %5 = alloca i32, align 4
  %6 = alloca i32, align 4
  %7 = alloca i32, align 4
  store i64 %0, ptr %4, align 8, !tbaa !13
  store i32 %1, ptr %5, align 4, !tbaa !10
  store i32 %2, ptr %6, align 4, !tbaa !10
  call void @llvm.lifetime.start.p0(i64 4, ptr %7) #10
  store i32 63, ptr %7, align 4, !tbaa !10
  %8 = load i64, ptr %4, align 8, !tbaa !13
  %9 = load i32, ptr %5, align 4, !tbaa !10
  %10 = and i32 %9, 63
  %11 = zext i32 %10 to i64
  %12 = lshr i64 %8, %11
  %13 = load i32, ptr %6, align 4, !tbaa !10
  %14 = zext i32 %13 to i64
  %15 = shl i64 1, %14
  %16 = sub i64 %15, 1
  %17 = and i64 %12, %16
  call void @llvm.lifetime.end.p0(i64 4, ptr %7) #10
  ret i64 %17
}

; Function Attrs: inlinehint nounwind uwtable
define internal i64 @MEM_readLEST(ptr noundef %0) #4 {
  %2 = alloca i64, align 8
  %3 = alloca ptr, align 8
  store ptr %0, ptr %3, align 8, !tbaa !12
  %4 = call i32 @MEM_32bits()
  %5 = icmp ne i32 %4, 0
  br i1 %5, label %6, label %10

6:                                                ; preds = %1
  %7 = load ptr, ptr %3, align 8, !tbaa !12
  %8 = call i32 @MEM_readLE32(ptr noundef %7)
  %9 = zext i32 %8 to i64
  store i64 %9, ptr %2, align 8
  br label %13

10:                                               ; preds = %1
  %11 = load ptr, ptr %3, align 8, !tbaa !12
  %12 = call i64 @MEM_readLE64(ptr noundef %11)
  store i64 %12, ptr %2, align 8
  br label %13

13:                                               ; preds = %10, %6
  %14 = load i64, ptr %2, align 8
  ret i64 %14
}

; Function Attrs: inlinehint nounwind uwtable
define internal i32 @BIT_reloadDStream_internal(ptr noundef %0) #4 {
  %2 = alloca ptr, align 8
  store ptr %0, ptr %2, align 8, !tbaa !12
  %3 = load ptr, ptr %2, align 8, !tbaa !12
  %4 = getelementptr inbounds nuw %struct.BIT_DStream_t, ptr %3, i32 0, i32 1
  %5 = load i32, ptr %4, align 8, !tbaa !43
  %6 = lshr i32 %5, 3
  %7 = load ptr, ptr %2, align 8, !tbaa !12
  %8 = getelementptr inbounds nuw %struct.BIT_DStream_t, ptr %7, i32 0, i32 2
  %9 = load ptr, ptr %8, align 8, !tbaa !41
  %10 = zext i32 %6 to i64
  %11 = sub i64 0, %10
  %12 = getelementptr inbounds i8, ptr %9, i64 %11
  store ptr %12, ptr %8, align 8, !tbaa !41
  %13 = load ptr, ptr %2, align 8, !tbaa !12
  %14 = getelementptr inbounds nuw %struct.BIT_DStream_t, ptr %13, i32 0, i32 1
  %15 = load i32, ptr %14, align 8, !tbaa !43
  %16 = and i32 %15, 7
  store i32 %16, ptr %14, align 8, !tbaa !43
  %17 = load ptr, ptr %2, align 8, !tbaa !12
  %18 = getelementptr inbounds nuw %struct.BIT_DStream_t, ptr %17, i32 0, i32 2
  %19 = load ptr, ptr %18, align 8, !tbaa !41
  %20 = call i64 @MEM_readLEST(ptr noundef %19)
  %21 = load ptr, ptr %2, align 8, !tbaa !12
  %22 = getelementptr inbounds nuw %struct.BIT_DStream_t, ptr %21, i32 0, i32 0
  store i64 %20, ptr %22, align 8, !tbaa !42
  ret i32 0
}

; Function Attrs: alwaysinline nounwind uwtable
define internal void @BIT_skipBits(ptr noundef %0, i32 noundef %1) #6 {
  %3 = alloca ptr, align 8
  %4 = alloca i32, align 4
  store ptr %0, ptr %3, align 8, !tbaa !12
  store i32 %1, ptr %4, align 4, !tbaa !10
  %5 = load i32, ptr %4, align 4, !tbaa !10
  %6 = load ptr, ptr %3, align 8, !tbaa !12
  %7 = getelementptr inbounds nuw %struct.BIT_DStream_t, ptr %6, i32 0, i32 1
  %8 = load i32, ptr %7, align 8, !tbaa !43
  %9 = add i32 %8, %5
  store i32 %9, ptr %7, align 8, !tbaa !43
  ret void
}

; Function Attrs: alwaysinline nounwind uwtable
define internal i64 @BIT_lookBits(ptr noundef %0, i32 noundef %1) #6 {
  %3 = alloca ptr, align 8
  %4 = alloca i32, align 4
  store ptr %0, ptr %3, align 8, !tbaa !12
  store i32 %1, ptr %4, align 4, !tbaa !10
  %5 = load ptr, ptr %3, align 8, !tbaa !12
  %6 = getelementptr inbounds nuw %struct.BIT_DStream_t, ptr %5, i32 0, i32 0
  %7 = load i64, ptr %6, align 8, !tbaa !42
  %8 = load ptr, ptr %3, align 8, !tbaa !12
  %9 = getelementptr inbounds nuw %struct.BIT_DStream_t, ptr %8, i32 0, i32 1
  %10 = load i32, ptr %9, align 8, !tbaa !43
  %11 = zext i32 %10 to i64
  %12 = sub i64 64, %11
  %13 = load i32, ptr %4, align 4, !tbaa !10
  %14 = zext i32 %13 to i64
  %15 = sub i64 %12, %14
  %16 = trunc i64 %15 to i32
  %17 = load i32, ptr %4, align 4, !tbaa !10
  %18 = call i64 @BIT_getMiddleBits(i64 noundef %7, i32 noundef %16, i32 noundef %17)
  ret i64 %18
}

; Function Attrs: alwaysinline nounwind uwtable
define internal i32 @BIT_reloadDStream(ptr noundef %0) #6 {
  %2 = alloca i32, align 4
  %3 = alloca ptr, align 8
  %4 = alloca i32, align 4
  %5 = alloca i32, align 4
  store ptr %0, ptr %3, align 8, !tbaa !12
  %6 = load ptr, ptr %3, align 8, !tbaa !12
  %7 = getelementptr inbounds nuw %struct.BIT_DStream_t, ptr %6, i32 0, i32 1
  %8 = load i32, ptr %7, align 8, !tbaa !43
  %9 = zext i32 %8 to i64
  %10 = icmp ugt i64 %9, 64
  %11 = zext i1 %10 to i32
  %12 = sext i32 %11 to i64
  %13 = call i64 @llvm.expect.i64(i64 %12, i64 0)
  %14 = icmp ne i64 %13, 0
  br i1 %14, label %15, label %18

15:                                               ; preds = %1
  %16 = load ptr, ptr %3, align 8, !tbaa !12
  %17 = getelementptr inbounds nuw %struct.BIT_DStream_t, ptr %16, i32 0, i32 2
  store ptr @BIT_reloadDStream.zeroFilled, ptr %17, align 8, !tbaa !41
  store i32 3, ptr %2, align 4
  br label %93

18:                                               ; preds = %1
  %19 = load ptr, ptr %3, align 8, !tbaa !12
  %20 = getelementptr inbounds nuw %struct.BIT_DStream_t, ptr %19, i32 0, i32 2
  %21 = load ptr, ptr %20, align 8, !tbaa !41
  %22 = load ptr, ptr %3, align 8, !tbaa !12
  %23 = getelementptr inbounds nuw %struct.BIT_DStream_t, ptr %22, i32 0, i32 4
  %24 = load ptr, ptr %23, align 8, !tbaa !40
  %25 = icmp uge ptr %21, %24
  br i1 %25, label %26, label %29

26:                                               ; preds = %18
  %27 = load ptr, ptr %3, align 8, !tbaa !12
  %28 = call i32 @BIT_reloadDStream_internal(ptr noundef %27)
  store i32 %28, ptr %2, align 4
  br label %93

29:                                               ; preds = %18
  %30 = load ptr, ptr %3, align 8, !tbaa !12
  %31 = getelementptr inbounds nuw %struct.BIT_DStream_t, ptr %30, i32 0, i32 2
  %32 = load ptr, ptr %31, align 8, !tbaa !41
  %33 = load ptr, ptr %3, align 8, !tbaa !12
  %34 = getelementptr inbounds nuw %struct.BIT_DStream_t, ptr %33, i32 0, i32 3
  %35 = load ptr, ptr %34, align 8, !tbaa !38
  %36 = icmp eq ptr %32, %35
  br i1 %36, label %37, label %45

37:                                               ; preds = %29
  %38 = load ptr, ptr %3, align 8, !tbaa !12
  %39 = getelementptr inbounds nuw %struct.BIT_DStream_t, ptr %38, i32 0, i32 1
  %40 = load i32, ptr %39, align 8, !tbaa !43
  %41 = zext i32 %40 to i64
  %42 = icmp ult i64 %41, 64
  br i1 %42, label %43, label %44

43:                                               ; preds = %37
  store i32 1, ptr %2, align 4
  br label %93

44:                                               ; preds = %37
  store i32 2, ptr %2, align 4
  br label %93

45:                                               ; preds = %29
  call void @llvm.lifetime.start.p0(i64 4, ptr %4) #10
  %46 = load ptr, ptr %3, align 8, !tbaa !12
  %47 = getelementptr inbounds nuw %struct.BIT_DStream_t, ptr %46, i32 0, i32 1
  %48 = load i32, ptr %47, align 8, !tbaa !43
  %49 = lshr i32 %48, 3
  store i32 %49, ptr %4, align 4, !tbaa !10
  call void @llvm.lifetime.start.p0(i64 4, ptr %5) #10
  store i32 0, ptr %5, align 4, !tbaa !10
  %50 = load ptr, ptr %3, align 8, !tbaa !12
  %51 = getelementptr inbounds nuw %struct.BIT_DStream_t, ptr %50, i32 0, i32 2
  %52 = load ptr, ptr %51, align 8, !tbaa !41
  %53 = load i32, ptr %4, align 4, !tbaa !10
  %54 = zext i32 %53 to i64
  %55 = sub i64 0, %54
  %56 = getelementptr inbounds i8, ptr %52, i64 %55
  %57 = load ptr, ptr %3, align 8, !tbaa !12
  %58 = getelementptr inbounds nuw %struct.BIT_DStream_t, ptr %57, i32 0, i32 3
  %59 = load ptr, ptr %58, align 8, !tbaa !38
  %60 = icmp ult ptr %56, %59
  br i1 %60, label %61, label %72

61:                                               ; preds = %45
  %62 = load ptr, ptr %3, align 8, !tbaa !12
  %63 = getelementptr inbounds nuw %struct.BIT_DStream_t, ptr %62, i32 0, i32 2
  %64 = load ptr, ptr %63, align 8, !tbaa !41
  %65 = load ptr, ptr %3, align 8, !tbaa !12
  %66 = getelementptr inbounds nuw %struct.BIT_DStream_t, ptr %65, i32 0, i32 3
  %67 = load ptr, ptr %66, align 8, !tbaa !38
  %68 = ptrtoint ptr %64 to i64
  %69 = ptrtoint ptr %67 to i64
  %70 = sub i64 %68, %69
  %71 = trunc i64 %70 to i32
  store i32 %71, ptr %4, align 4, !tbaa !10
  store i32 1, ptr %5, align 4, !tbaa !10
  br label %72

72:                                               ; preds = %61, %45
  %73 = load i32, ptr %4, align 4, !tbaa !10
  %74 = load ptr, ptr %3, align 8, !tbaa !12
  %75 = getelementptr inbounds nuw %struct.BIT_DStream_t, ptr %74, i32 0, i32 2
  %76 = load ptr, ptr %75, align 8, !tbaa !41
  %77 = zext i32 %73 to i64
  %78 = sub i64 0, %77
  %79 = getelementptr inbounds i8, ptr %76, i64 %78
  store ptr %79, ptr %75, align 8, !tbaa !41
  %80 = load i32, ptr %4, align 4, !tbaa !10
  %81 = mul i32 %80, 8
  %82 = load ptr, ptr %3, align 8, !tbaa !12
  %83 = getelementptr inbounds nuw %struct.BIT_DStream_t, ptr %82, i32 0, i32 1
  %84 = load i32, ptr %83, align 8, !tbaa !43
  %85 = sub i32 %84, %81
  store i32 %85, ptr %83, align 8, !tbaa !43
  %86 = load ptr, ptr %3, align 8, !tbaa !12
  %87 = getelementptr inbounds nuw %struct.BIT_DStream_t, ptr %86, i32 0, i32 2
  %88 = load ptr, ptr %87, align 8, !tbaa !41
  %89 = call i64 @MEM_readLEST(ptr noundef %88)
  %90 = load ptr, ptr %3, align 8, !tbaa !12
  %91 = getelementptr inbounds nuw %struct.BIT_DStream_t, ptr %90, i32 0, i32 0
  store i64 %89, ptr %91, align 8, !tbaa !42
  %92 = load i32, ptr %5, align 4, !tbaa !10
  store i32 %92, ptr %2, align 4
  call void @llvm.lifetime.end.p0(i64 4, ptr %5) #10
  call void @llvm.lifetime.end.p0(i64 4, ptr %4) #10
  br label %93

93:                                               ; preds = %72, %44, %43, %26, %15
  %94 = load i32, ptr %2, align 4
  ret i32 %94
}

; Function Attrs: alwaysinline nounwind uwtable
define internal i64 @BIT_readBits(ptr noundef %0, i32 noundef %1) #6 {
  %3 = alloca ptr, align 8
  %4 = alloca i32, align 4
  %5 = alloca i64, align 8
  store ptr %0, ptr %3, align 8, !tbaa !12
  store i32 %1, ptr %4, align 4, !tbaa !10
  call void @llvm.lifetime.start.p0(i64 8, ptr %5) #10
  %6 = load ptr, ptr %3, align 8, !tbaa !12
  %7 = load i32, ptr %4, align 4, !tbaa !10
  %8 = call i64 @BIT_lookBits(ptr noundef %6, i32 noundef %7)
  store i64 %8, ptr %5, align 8, !tbaa !13
  %9 = load ptr, ptr %3, align 8, !tbaa !12
  %10 = load i32, ptr %4, align 4, !tbaa !10
  call void @BIT_skipBits(ptr noundef %9, i32 noundef %10)
  %11 = load i64, ptr %5, align 8, !tbaa !13
  call void @llvm.lifetime.end.p0(i64 8, ptr %5) #10
  ret i64 %11
}

; Function Attrs: inlinehint nounwind uwtable
define internal void @FSE_initDState(ptr noundef %0, ptr noundef %1, ptr noundef %2) #4 {
  %4 = alloca ptr, align 8
  %5 = alloca ptr, align 8
  %6 = alloca ptr, align 8
  %7 = alloca ptr, align 8
  %8 = alloca ptr, align 8
  store ptr %0, ptr %4, align 8, !tbaa !12
  store ptr %1, ptr %5, align 8, !tbaa !12
  store ptr %2, ptr %6, align 8, !tbaa !3
  call void @llvm.lifetime.start.p0(i64 8, ptr %7) #10
  %9 = load ptr, ptr %6, align 8, !tbaa !3
  store ptr %9, ptr %7, align 8, !tbaa !12
  call void @llvm.lifetime.start.p0(i64 8, ptr %8) #10
  %10 = load ptr, ptr %7, align 8, !tbaa !12
  store ptr %10, ptr %8, align 8, !tbaa !12
  %11 = load ptr, ptr %5, align 8, !tbaa !12
  %12 = load ptr, ptr %8, align 8, !tbaa !12
  %13 = getelementptr inbounds nuw %struct.FSE_DTableHeader, ptr %12, i32 0, i32 0
  %14 = load i16, ptr %13, align 2, !tbaa !17
  %15 = zext i16 %14 to i32
  %16 = call i64 @BIT_readBits(ptr noundef %11, i32 noundef %15)
  %17 = load ptr, ptr %4, align 8, !tbaa !12
  %18 = getelementptr inbounds nuw %struct.FSE_DState_t, ptr %17, i32 0, i32 0
  store i64 %16, ptr %18, align 8, !tbaa !44
  %19 = load ptr, ptr %5, align 8, !tbaa !12
  %20 = call i32 @BIT_reloadDStream(ptr noundef %19)
  %21 = load ptr, ptr %6, align 8, !tbaa !3
  %22 = getelementptr inbounds i32, ptr %21, i64 1
  %23 = load ptr, ptr %4, align 8, !tbaa !12
  %24 = getelementptr inbounds nuw %struct.FSE_DState_t, ptr %23, i32 0, i32 1
  store ptr %22, ptr %24, align 8, !tbaa !46
  call void @llvm.lifetime.end.p0(i64 8, ptr %8) #10
  call void @llvm.lifetime.end.p0(i64 8, ptr %7) #10
  ret void
}