; Function Attrs: inlinehint mustprogress nofree norecurse nosync nounwind willreturn memory(read, argmem: readwrite, inaccessiblemem: none) uwtable
define internal fastcc void @FSE_initDState(ptr noundef nonnull writeonly captures(none) initializes((0, 16)) %0, ptr noundef nonnull captures(none) %1, ptr noundef %2) unnamed_addr #7 {
  %4 = load i16, ptr %2, align 2, !tbaa !40
  %5 = zext i16 %4 to i32
  %6 = load i64, ptr %1, align 8, !tbaa !33
  %7 = getelementptr inbounds nuw i8, ptr %1, i64 8
  %8 = load i32, ptr %7, align 8, !tbaa !34
  %9 = add i32 %8, %5
  %10 = sub i32 0, %9
  %11 = and i32 %10, 63
  %12 = zext nneg i32 %11 to i64
  %13 = lshr i64 %6, %12
  %14 = zext nneg i16 %4 to i64
  %notmask.i = shl nsw i64 -1, %14
  %15 = xor i64 %notmask.i, -1
  %16 = and i64 %13, %15
  store i32 %9, ptr %7, align 8, !tbaa !34
  store i64 %16, ptr %0, align 8, !tbaa !41
  %17 = icmp ugt i32 %9, 64
  %18 = getelementptr inbounds nuw i8, ptr %1, i64 16
  br i1 %17, label %19, label %20, !prof !35

19:                                               ; preds = %3
  store ptr @BIT_reloadDStream.zeroFilled, ptr %18, align 8, !tbaa !32
  br label %BIT_reloadDStream.exit

20:                                               ; preds = %3
  %21 = load ptr, ptr %18, align 8, !tbaa !32
  %22 = getelementptr inbounds nuw i8, ptr %1, i64 32
  %23 = load ptr, ptr %22, align 8, !tbaa !31
  %.not.i = icmp ult ptr %21, %23
  br i1 %.not.i, label %30, label %24

24:                                               ; preds = %20
  %25 = lshr i32 %9, 3
  %26 = zext nneg i32 %25 to i64
  %27 = sub nsw i64 0, %26
  %28 = getelementptr inbounds i8, ptr %21, i64 %27
  store ptr %28, ptr %18, align 8, !tbaa !32
  %29 = and i32 %9, 7
  store i32 %29, ptr %7, align 8, !tbaa !34
  %.val.i.i = load i64, ptr %28, align 1, !tbaa !11
  store i64 %.val.i.i, ptr %1, align 8, !tbaa !33
  br label %BIT_reloadDStream.exit

30:                                               ; preds = %20
  %31 = getelementptr inbounds nuw i8, ptr %1, i64 24
  %32 = load ptr, ptr %31, align 8, !tbaa !27
  %33 = icmp eq ptr %21, %32
  br i1 %33, label %BIT_reloadDStream.exit, label %34

34:                                               ; preds = %30
  %35 = lshr i32 %9, 3
  %36 = zext nneg i32 %35 to i64
  %37 = sub nsw i64 0, %36
  %38 = getelementptr inbounds i8, ptr %21, i64 %37
  %39 = icmp ult ptr %38, %32
  %40 = ptrtoint ptr %21 to i64
  %41 = ptrtoint ptr %32 to i64
  %42 = sub i64 %40, %41
  %43 = trunc i64 %42 to i32
  %.021.i = select i1 %39, i32 %43, i32 %35
  %44 = zext i32 %.021.i to i64
  %45 = sub nsw i64 0, %44
  %46 = getelementptr inbounds i8, ptr %21, i64 %45
  store ptr %46, ptr %18, align 8, !tbaa !32
  %47 = shl i32 %.021.i, 3
  %48 = sub i32 %9, %47
  store i32 %48, ptr %7, align 8, !tbaa !34
  %.val.i = load i64, ptr %46, align 1, !tbaa !11
  store i64 %.val.i, ptr %1, align 8, !tbaa !33
  br label %BIT_reloadDStream.exit

BIT_reloadDStream.exit:                           ; preds = %30, %19, %24, %34
  %49 = getelementptr inbounds nuw i8, ptr %2, i64 4
  %50 = getelementptr inbounds nuw i8, ptr %0, i64 8
  store ptr %49, ptr %50, align 8, !tbaa !43
  ret void
}